; Function Attrs: mustprogress nounwind uwtable
define hidden noundef ptr @_ZN2cv8tinyxml27XMLText9ParseDeepEPcPNS0_7StrPairE(ptr noundef nonnull align 8 captures(none) dereferenceable(89) %0, ptr noundef %1, ptr readnone captures(none) %2) unnamed_addr #0 align 2 {
  %4 = getelementptr inbounds nuw i8, ptr %0, i64 88
  %5 = load i8, ptr %4, align 8, !tbaa !42, !range !119, !noundef !120
  %6 = trunc nuw i8 %5 to i1
  br i1 %6, label %7, label %35

7:                                                ; preds = %3
  %8 = getelementptr inbounds nuw i8, ptr %0, i64 24
  %9 = load i8, ptr %1, align 1, !tbaa !12
  %.not19.i = icmp eq i8 %9, 0
  br i1 %.not19.i, label %_ZN2cv8tinyxml27StrPair9ParseTextEPcPKci.exit.thread, label %.lr.ph.i

.lr.ph.i:                                         ; preds = %7, %.tail.thread
  %10 = phi i8 [ %26, %.tail.thread ], [ %9, %7 ]
  %.01620.i = phi ptr [ %25, %.tail.thread ], [ %1, %7 ]
  %11 = icmp eq i8 %10, 93
  br i1 %11, label %sub_1, label %.tail.thread

sub_1:                                            ; preds = %.lr.ph.i
  %12 = getelementptr inbounds nuw i8, ptr %.01620.i, i64 1
  %13 = load i8, ptr %12, align 1
  %.not41 = icmp eq i8 %13, 93
  br i1 %.not41, label %.tail, label %.tail.thread

.tail:                                            ; preds = %sub_1
  %14 = getelementptr inbounds nuw i8, ptr %.01620.i, i64 2
  %15 = load i8, ptr %14, align 1
  %16 = icmp eq i8 %15, 62
  br i1 %16, label %17, label %.tail.thread

17:                                               ; preds = %.tail
  %18 = load i32, ptr %8, align 8, !tbaa !3
  %19 = and i32 %18, 512
  %.not.i.i.i = icmp eq i32 %19, 0
  br i1 %.not.i.i.i, label %_ZN2cv8tinyxml27StrPair9ParseTextEPcPKci.exit, label %20

20:                                               ; preds = %17
  %21 = getelementptr inbounds nuw i8, ptr %0, i64 32
  %22 = load ptr, ptr %21, align 8, !tbaa !10
  %23 = icmp eq ptr %22, null
  br i1 %23, label %_ZN2cv8tinyxml27StrPair9ParseTextEPcPKci.exit, label %24

24:                                               ; preds = %20
  tail call void @_ZdaPv(ptr noundef nonnull %22) #23
  br label %_ZN2cv8tinyxml27StrPair9ParseTextEPcPKci.exit

.tail.thread:                                     ; preds = %sub_1, %.tail, %.lr.ph.i
  %25 = getelementptr inbounds nuw i8, ptr %.01620.i, i64 1
  %26 = load i8, ptr %25, align 1, !tbaa !12
  %.not.i = icmp eq i8 %26, 0
  br i1 %.not.i, label %_ZN2cv8tinyxml27StrPair9ParseTextEPcPKci.exit.thread, label %.lr.ph.i, !llvm.loop !13

_ZN2cv8tinyxml27StrPair9ParseTextEPcPKci.exit:    ; preds = %17, %20, %24
  %27 = getelementptr inbounds nuw i8, ptr %0, i64 32
  store ptr %1, ptr %27, align 8, !tbaa !10
  %28 = getelementptr inbounds nuw i8, ptr %0, i64 40
  store ptr %.01620.i, ptr %28, align 8, !tbaa !11
  store i32 258, ptr %8, align 8, !tbaa !3
  %29 = getelementptr inbounds nuw i8, ptr %.01620.i, i64 3
  br label %69

_ZN2cv8tinyxml27StrPair9ParseTextEPcPKci.exit.thread: ; preds = %.tail.thread, %7
  %30 = getelementptr inbounds nuw i8, ptr %0, i64 8
  %31 = load ptr, ptr %30, align 8, !tbaa !33
  %32 = getelementptr inbounds nuw i8, ptr %31, i64 92
  store i32 11, ptr %32, align 4, !tbaa !106
  %33 = getelementptr inbounds nuw i8, ptr %31, i64 104
  store ptr %1, ptr %33, align 8, !tbaa !116
  %34 = getelementptr inbounds nuw i8, ptr %31, i64 112
  store ptr null, ptr %34, align 8, !tbaa !117
  br label %69

35:                                               ; preds = %3
  %36 = getelementptr inbounds nuw i8, ptr %0, i64 8
  %37 = load ptr, ptr %36, align 8, !tbaa !33
  %38 = getelementptr inbounds nuw i8, ptr %37, i64 89
  %39 = load i8, ptr %38, align 1, !tbaa !121, !range !119, !noundef !120
  %40 = trunc nuw i8 %39 to i1
  %41 = select i1 %40, i32 3, i32 2
  %42 = getelementptr inbounds nuw i8, ptr %37, i64 96
  %43 = load i32, ptr %42, align 8, !tbaa !122
  %44 = icmp eq i32 %43, 1
  %45 = or disjoint i32 %41, 4
  %spec.select = select i1 %44, i32 %45, i32 %41
  %46 = getelementptr inbounds nuw i8, ptr %0, i64 24
  %47 = load i8, ptr %1, align 1, !tbaa !12
  %.not19.i23 = icmp eq i8 %47, 0
  br i1 %.not19.i23, label %.thread, label %.lr.ph.i24

.lr.ph.i24:                                       ; preds = %35, %57
  %lhsc = phi i8 [ %59, %57 ], [ %47, %35 ]
  %.01620.i25 = phi ptr [ %58, %57 ], [ %1, %35 ]
  %48 = icmp eq i8 %lhsc, 60
  br i1 %48, label %49, label %57

49:                                               ; preds = %.lr.ph.i24
  %50 = load i32, ptr %46, align 8, !tbaa !3
  %51 = and i32 %50, 512
  %.not.i.i.i28 = icmp eq i32 %51, 0
  br i1 %.not.i.i.i28, label %_ZN2cv8tinyxml27StrPair9ParseTextEPcPKci.exit30, label %52

52:                                               ; preds = %49
  %53 = getelementptr inbounds nuw i8, ptr %0, i64 32
  %54 = load ptr, ptr %53, align 8, !tbaa !10
  %55 = icmp eq ptr %54, null
  br i1 %55, label %_ZN2cv8tinyxml27StrPair9ParseTextEPcPKci.exit30, label %56

56:                                               ; preds = %52
  tail call void @_ZdaPv(ptr noundef nonnull %54) #23
  br label %_ZN2cv8tinyxml27StrPair9ParseTextEPcPKci.exit30

57:                                               ; preds = %.lr.ph.i24
  %58 = getelementptr inbounds nuw i8, ptr %.01620.i25, i64 1
  %59 = load i8, ptr %58, align 1, !tbaa !12
  %.not.i26 = icmp eq i8 %59, 0
  br i1 %.not.i26, label %.thread, label %.lr.ph.i24, !llvm.loop !13

_ZN2cv8tinyxml27StrPair9ParseTextEPcPKci.exit30:  ; preds = %49, %52, %56
  %60 = getelementptr inbounds nuw i8, ptr %0, i64 32
  store ptr %1, ptr %60, align 8, !tbaa !10
  %61 = getelementptr inbounds nuw i8, ptr %0, i64 40
  store ptr %.01620.i25, ptr %61, align 8, !tbaa !11
  %62 = or disjoint i32 %spec.select, 256
  store i32 %62, ptr %46, align 8, !tbaa !3
  %63 = getelementptr inbounds nuw i8, ptr %.01620.i25, i64 1
  %64 = load i8, ptr %63, align 1, !tbaa !12
  %.fr = freeze i8 %64
  %.not18 = icmp eq i8 %.fr, 0
  br i1 %.not18, label %68, label %69

.thread:                                          ; preds = %57, %35
  %65 = getelementptr inbounds nuw i8, ptr %37, i64 92
  store i32 10, ptr %65, align 4, !tbaa !106
  %66 = getelementptr inbounds nuw i8, ptr %37, i64 104
  store ptr %1, ptr %66, align 8, !tbaa !116
  %67 = getelementptr inbounds nuw i8, ptr %37, i64 112
  store ptr null, ptr %67, align 8, !tbaa !117
  br label %68

68:                                               ; preds = %.thread, %_ZN2cv8tinyxml27StrPair9ParseTextEPcPKci.exit30
  br label %69

69:                                               ; preds = %_ZN2cv8tinyxml27StrPair9ParseTextEPcPKci.exit, %68, %_ZN2cv8tinyxml27StrPair9ParseTextEPcPKci.exit30, %_ZN2cv8tinyxml27StrPair9ParseTextEPcPKci.exit.thread
  %.016 = phi ptr [ null, %_ZN2cv8tinyxml27StrPair9ParseTextEPcPKci.exit.thread ], [ %29, %_ZN2cv8tinyxml27StrPair9ParseTextEPcPKci.exit ], [ null, %68 ], [ %.01620.i25, %_ZN2cv8tinyxml27StrPair9ParseTextEPcPKci.exit30 ]
  ret ptr %.016
}